target datalayout = "e-m:e-p270:32:32-p271:32:32-p272:64:64-i64:64-i128:128-f80:128-n8:16:32:64-S128"
target triple = "x86_64-pc-linux-gnu"

%struct.ARKodeARKStepMemRec = type { ptr, ptr, i32, i32, i32, i32, i32, i32, ptr, ptr, ptr, ptr, ptr, ptr, i32, i32, i32, i32, ptr, ptr, ptr, ptr, i32, ptr, double, double, double, double, i32, double, double, double, double, double, double, i32, i64, i32, i32, i32, ptr, ptr, ptr, ptr, ptr, ptr, i32, ptr, ptr, ptr, ptr, ptr, ptr, i32, i32, i64, i64, i64, i64, i64, ptr, ptr, i32, i32, i32, double, double, ptr, i32, ptr, ptr }
%struct.ARKodeMemRec = type { ptr, double, ptr, i32, i32, double, double, ptr, i32, double, ptr, i32, i32, ptr, ptr, i32, ptr, ptr, i32, ptr, ptr, ptr, ptr, ptr, ptr, ptr, ptr, ptr, ptr, ptr, ptr, ptr, ptr, ptr, i32, ptr, ptr, i32, ptr, i32, ptr, ptr, ptr, ptr, ptr, ptr, ptr, ptr, ptr, ptr, ptr, ptr, ptr, ptr, ptr, ptr, ptr, ptr, ptr, ptr, ptr, ptr, ptr, ptr, ptr, ptr, i32, ptr, ptr, ptr, ptr, ptr, ptr, ptr, i32, ptr, ptr, ptr, i32, ptr, ptr, ptr, ptr, ptr, ptr, ptr, i32, i32, i32, i32, double, double, double, double, double, double, double, double, double, double, i32, ptr, i64, i32, i32, i32, i32, i64, i64, i32, i64, i64, i64, i64, i64, i64, i64, double, double, double, double, double, i32, double, double, i32, i32, i32, i32, i32, i32, i32, i32, ptr, i32, ptr, ptr, ptr, ptr, i32, i32, i32 }

@.str = private unnamed_addr constant [127 x i8] c"generated/home/dtcxzyw/WorkSpace/Projects/compilers/llvm-opt-benchmark/bench/sundials/sundials/src/arkode/arkode_arkstep_nls.c\00", align 1
@.str.8 = private unnamed_addr constant [41 x i8] c"Setting nonlinear system function failed\00", align 1
@__func__.arkStep_NlsInit = private unnamed_addr constant [16 x i8] c"arkStep_NlsInit\00", align 1
@.str.9 = private unnamed_addr constant [33 x i8] c"Time step module memory is NULL.\00", align 1
@.str.10 = private unnamed_addr constant [48 x i8] c"Setting the linear solver setup function failed\00", align 1
@.str.11 = private unnamed_addr constant [44 x i8] c"Setting linear solver solve function failed\00", align 1
@.str.12 = private unnamed_addr constant [44 x i8] c"The nonlinear solver's init routine failed.\00", align 1

; Function Attrs: nounwind uwtable
define i32 @arkStep_NlsInit(ptr noundef %0) #0 {
  %2 = alloca i32, align 4
  %3 = alloca ptr, align 8
  %4 = alloca ptr, align 8
  %5 = alloca i32, align 4
  %6 = alloca i32, align 4
  store ptr %0, ptr %3, align 8, !tbaa !3
  call void @llvm.lifetime.start.p0(i64 8, ptr %4) #4
  call void @llvm.lifetime.start.p0(i64 4, ptr %5) #4
  %7 = load ptr, ptr %3, align 8, !tbaa !3
  %8 = getelementptr inbounds nuw %struct.ARKodeMemRec, ptr %7, i32 0, i32 19
  %9 = load ptr, ptr %8, align 8, !tbaa !65
  %10 = icmp eq ptr %9, null
  br i1 %10, label %11, label %13

11:                                               ; preds = %1
  %12 = load ptr, ptr %3, align 8, !tbaa !3
  call void (ptr, i32, i32, ptr, ptr, ptr, ...) @arkProcessError(ptr noundef %12, i32 noundef -21, i32 noundef 291, ptr noundef @__func__.arkStep_NlsInit, ptr noundef @.str, ptr noundef @.str.9)
  store i32 -21, ptr %2, align 4
  store i32 1, ptr %6, align 4
  br label %77

13:                                               ; preds = %1
  %14 = load ptr, ptr %3, align 8, !tbaa !3
  %15 = getelementptr inbounds nuw %struct.ARKodeMemRec, ptr %14, i32 0, i32 19
  %16 = load ptr, ptr %15, align 8, !tbaa !65
  store ptr %16, ptr %4, align 8, !tbaa !20
  %17 = load ptr, ptr %4, align 8, !tbaa !20
  %18 = getelementptr inbounds nuw %struct.ARKodeARKStepMemRec, ptr %17, i32 0, i32 58
  store i64 0, ptr %18, align 8, !tbaa !66
  %19 = load ptr, ptr %4, align 8, !tbaa !20
  %20 = getelementptr inbounds nuw %struct.ARKodeARKStepMemRec, ptr %19, i32 0, i32 59
  store i64 0, ptr %20, align 8, !tbaa !67
  %21 = load ptr, ptr %4, align 8, !tbaa !20
  %22 = getelementptr inbounds nuw %struct.ARKodeARKStepMemRec, ptr %21, i32 0, i32 42
  %23 = load ptr, ptr %22, align 8, !tbaa !68
  %24 = icmp ne ptr %23, null
  br i1 %24, label %25, label %30

25:                                               ; preds = %13
  %26 = load ptr, ptr %4, align 8, !tbaa !20
  %27 = getelementptr inbounds nuw %struct.ARKodeARKStepMemRec, ptr %26, i32 0, i32 21
  %28 = load ptr, ptr %27, align 8, !tbaa !22
  %29 = call i32 @SUNNonlinSolSetLSetupFn(ptr noundef %28, ptr noundef @arkStep_NlsLSetup)
  store i32 %29, ptr %5, align 4, !tbaa !10
  br label %35

30:                                               ; preds = %13
  %31 = load ptr, ptr %4, align 8, !tbaa !20
  %32 = getelementptr inbounds nuw %struct.ARKodeARKStepMemRec, ptr %31, i32 0, i32 21
  %33 = load ptr, ptr %32, align 8, !tbaa !22
  %34 = call i32 @SUNNonlinSolSetLSetupFn(ptr noundef %33, ptr noundef null)
  store i32 %34, ptr %5, align 4, !tbaa !10
  br label %35

35:                                               ; preds = %30, %25
  %36 = load i32, ptr %5, align 4, !tbaa !10
  %37 = icmp ne i32 %36, 0
  br i1 %37, label %38, label %40

38:                                               ; preds = %35
  %39 = load ptr, ptr %3, align 8, !tbaa !3
  call void (ptr, i32, i32, ptr, ptr, ptr, ...) @arkProcessError(ptr noundef %39, i32 noundef -22, i32 noundef 309, ptr noundef @__func__.arkStep_NlsInit, ptr noundef @.str, ptr noundef @.str.10)
  store i32 -29, ptr %2, align 4
  store i32 1, ptr %6, align 4
  br label %77

40:                                               ; preds = %35
  %41 = load ptr, ptr %4, align 8, !tbaa !20
  %42 = getelementptr inbounds nuw %struct.ARKodeARKStepMemRec, ptr %41, i32 0, i32 43
  %43 = load ptr, ptr %42, align 8, !tbaa !69
  %44 = icmp ne ptr %43, null
  br i1 %44, label %45, label %50

45:                                               ; preds = %40
  %46 = load ptr, ptr %4, align 8, !tbaa !20
  %47 = getelementptr inbounds nuw %struct.ARKodeARKStepMemRec, ptr %46, i32 0, i32 21
  %48 = load ptr, ptr %47, align 8, !tbaa !22
  %49 = call i32 @SUNNonlinSolSetLSolveFn(ptr noundef %48, ptr noundef @arkStep_NlsLSolve)
  store i32 %49, ptr %5, align 4, !tbaa !10
  br label %55

50:                                               ; preds = %40
  %51 = load ptr, ptr %4, align 8, !tbaa !20
  %52 = getelementptr inbounds nuw %struct.ARKodeARKStepMemRec, ptr %51, i32 0, i32 21
  %53 = load ptr, ptr %52, align 8, !tbaa !22
  %54 = call i32 @SUNNonlinSolSetLSolveFn(ptr noundef %53, ptr noundef null)
  store i32 %54, ptr %5, align 4, !tbaa !10
  br label %55

55:                                               ; preds = %50, %45
  %56 = load i32, ptr %5, align 4, !tbaa !10
  %57 = icmp ne i32 %56, 0
  br i1 %57, label %58, label %60

58:                                               ; preds = %55
  %59 = load ptr, ptr %3, align 8, !tbaa !3
  call void (ptr, i32, i32, ptr, ptr, ptr, ...) @arkProcessError(ptr noundef %59, i32 noundef -22, i32 noundef 322, ptr noundef @__func__.arkStep_NlsInit, ptr noundef @.str, ptr noundef @.str.11)
  store i32 -29, ptr %2, align 4
  store i32 1, ptr %6, align 4
  br label %77

60:                                               ; preds = %55
  %61 = load ptr, ptr %3, align 8, !tbaa !3
  %62 = call i32 @arkStep_SetNlsSysFn(ptr noundef %61)
  store i32 %62, ptr %5, align 4, !tbaa !10
  %63 = load i32, ptr %5, align 4, !tbaa !10
  %64 = icmp ne i32 %63, 0
  br i1 %64, label %65, label %67

65:                                               ; preds = %60
  %66 = load ptr, ptr %3, align 8, !tbaa !3
  call void (ptr, i32, i32, ptr, ptr, ptr, ...) @arkProcessError(ptr noundef %66, i32 noundef -22, i32 noundef 330, ptr noundef @__func__.arkStep_NlsInit, ptr noundef @.str, ptr noundef @.str.8)
  store i32 -22, ptr %2, align 4
  store i32 1, ptr %6, align 4
  br label %77

67:                                               ; preds = %60
  %68 = load ptr, ptr %4, align 8, !tbaa !20
  %69 = getelementptr inbounds nuw %struct.ARKodeARKStepMemRec, ptr %68, i32 0, i32 21
  %70 = load ptr, ptr %69, align 8, !tbaa !22
  %71 = call i32 @SUNNonlinSolInitialize(ptr noundef %70)
  store i32 %71, ptr %5, align 4, !tbaa !10
  %72 = load i32, ptr %5, align 4, !tbaa !10
  %73 = icmp ne i32 %72, 0
  br i1 %73, label %74, label %76

74:                                               ; preds = %67
  %75 = load ptr, ptr %3, align 8, !tbaa !3
  call void (ptr, i32, i32, ptr, ptr, ptr, ...) @arkProcessError(ptr noundef %75, i32 noundef -22, i32 noundef 339, ptr noundef @__func__.arkStep_NlsInit, ptr noundef @.str, ptr noundef @.str.12)
  store i32 -29, ptr %2, align 4
  store i32 1, ptr %6, align 4
  br label %77

76:                                               ; preds = %67
  store i32 0, ptr %2, align 4
  store i32 1, ptr %6, align 4
  br label %77

77:                                               ; preds = %76, %74, %65, %58, %38, %11
  call void @llvm.lifetime.end.p0(i64 4, ptr %5) #4
  call void @llvm.lifetime.end.p0(i64 8, ptr %4) #4
  %78 = load i32, ptr %2, align 4
  ret i32 %78
}