; Function Attrs: nounwind uwtable
define range(i32 -29, 1) i32 @arkStep_NlsInit(ptr noundef %0) local_unnamed_addr #0 {
  %2 = getelementptr inbounds nuw i8, ptr %0, i64 136
  %3 = load ptr, ptr %2, align 8, !tbaa !62
  %4 = icmp eq ptr %3, null
  br i1 %4, label %5, label %6

5:                                                ; preds = %1
  tail call void (ptr, i32, i32, ptr, ptr, ptr, ...) @arkProcessError(ptr noundef nonnull %0, i32 noundef -21, i32 noundef 291, ptr noundef nonnull @__func__.arkStep_NlsInit, ptr noundef nonnull @.str, ptr noundef nonnull @.str.9) #5
  br label %29

6:                                                ; preds = %1
  %7 = getelementptr inbounds nuw i8, ptr %3, i64 408
  %8 = getelementptr inbounds nuw i8, ptr %3, i64 288
  tail call void @llvm.memset.p0.i64(ptr noundef nonnull align 8 dereferenceable(16) %7, i8 0, i64 16, i1 false)
  %9 = load ptr, ptr %8, align 8, !tbaa !63
  %.not = icmp eq ptr %9, null
  %10 = getelementptr inbounds nuw i8, ptr %3, i64 128
  %11 = load ptr, ptr %10, align 8, !tbaa !16
  %.arkStep_NlsLSetup = select i1 %.not, ptr null, ptr @arkStep_NlsLSetup
  %12 = tail call i32 @SUNNonlinSolSetLSetupFn(ptr noundef %11, ptr noundef %.arkStep_NlsLSetup) #5
  %.not23 = icmp eq i32 %12, 0
  br i1 %.not23, label %14, label %13

13:                                               ; preds = %6
  tail call void (ptr, i32, i32, ptr, ptr, ptr, ...) @arkProcessError(ptr noundef nonnull %0, i32 noundef -22, i32 noundef 309, ptr noundef nonnull @__func__.arkStep_NlsInit, ptr noundef nonnull @.str, ptr noundef nonnull @.str.10) #5
  br label %29

14:                                               ; preds = %6
  %15 = getelementptr inbounds nuw i8, ptr %3, i64 296
  %16 = load ptr, ptr %15, align 8, !tbaa !64
  %.not24 = icmp eq ptr %16, null
  %17 = getelementptr inbounds nuw i8, ptr %3, i64 128
  %18 = load ptr, ptr %17, align 8, !tbaa !16
  %.arkStep_NlsLSolve = select i1 %.not24, ptr null, ptr @arkStep_NlsLSolve
  %19 = tail call i32 @SUNNonlinSolSetLSolveFn(ptr noundef %18, ptr noundef %.arkStep_NlsLSolve) #5
  %.not25 = icmp eq i32 %19, 0
  br i1 %.not25, label %21, label %20

20:                                               ; preds = %14
  tail call void (ptr, i32, i32, ptr, ptr, ptr, ...) @arkProcessError(ptr noundef nonnull %0, i32 noundef -22, i32 noundef 322, ptr noundef nonnull @__func__.arkStep_NlsInit, ptr noundef nonnull @.str, ptr noundef nonnull @.str.11) #5
  br label %29

21:                                               ; preds = %14
  %22 = tail call i32 @arkStep_SetNlsSysFn(ptr noundef nonnull %0)
  %.not26 = icmp eq i32 %22, 0
  br i1 %.not26, label %24, label %23

23:                                               ; preds = %21
  tail call void (ptr, i32, i32, ptr, ptr, ptr, ...) @arkProcessError(ptr noundef nonnull %0, i32 noundef -22, i32 noundef 330, ptr noundef nonnull @__func__.arkStep_NlsInit, ptr noundef nonnull @.str, ptr noundef nonnull @.str.8) #5
  br label %29

24:                                               ; preds = %21
  %25 = getelementptr inbounds nuw i8, ptr %3, i64 128
  %26 = load ptr, ptr %25, align 8, !tbaa !16
  %27 = tail call i32 @SUNNonlinSolInitialize(ptr noundef %26) #5
  %.not27 = icmp eq i32 %27, 0
  br i1 %.not27, label %29, label %28

28:                                               ; preds = %24
  tail call void (ptr, i32, i32, ptr, ptr, ptr, ...) @arkProcessError(ptr noundef nonnull %0, i32 noundef -22, i32 noundef 339, ptr noundef nonnull @__func__.arkStep_NlsInit, ptr noundef nonnull @.str, ptr noundef nonnull @.str.12) #5
  br label %29

29:                                               ; preds = %24, %28, %23, %20, %13, %5
  %.021 = phi i32 [ -21, %5 ], [ -29, %13 ], [ -29, %20 ], [ -22, %23 ], [ -29, %28 ], [ 0, %24 ]
  ret i32 %.021
}